Certificate:
    Data:
        Version: 3 (0x2)
        Serial Number: 12842659406477961558 (0xb23a4aafd672a956)
    Signature Algorithm: sha1WithRSAEncryption
        Issuer: C=SE, ST=Skane, O=LTH, OU=Datasakerhet, CN=CA
        Validity
            Not Before: Feb  3 09:14:58 2015 GMT
            Not After : Feb  2 09:14:58 2018 GMT
        Subject: C=SE, ST=Skane, O=LTH, OU=Datasakerhet, CN=CA
        Subject Public Key Info:
            Public Key Algorithm: rsaEncryption
                Public-Key: (1024 bit)
                Modulus:
                    00:de:e2:19:80:a8:d1:3c:2b:22:ab:38:4b:38:a2:
                    c4:6f:66:d4:de:c3:09:8d:ab:37:d1:7a:28:c5:4c:
                    7a:c7:a5:a3:ce:32:78:36:b2:55:8d:80:7a:43:8f:
                    65:12:8a:e8:9b:62:f5:3b:d6:3c:91:7a:ab:c5:9d:
                    ff:c7:ee:d3:48:41:81:ad:10:64:d8:bc:53:f8:b2:
                    cf:61:ef:70:1f:93:7c:90:02:79:1b:7b:89:36:bd:
                    c2:d1:ad:49:04:56:6c:be:26:b4:f1:f8:12:a2:74:
                    aa:3f:de:07:0a:6c:49:29:ee:a4:fc:e5:24:82:18:
                    a8:17:0f:30:41:a0:7e:e8:c5
                Exponent: 65537 (0x10001)
        X509v3 extensions:
            X509v3 Subject Key Identifier: 
                8C:98:B5:77:72:5B:55:69:B3:C6:AA:8F:1A:6A:B6:79:F1:87:27:FB
            X509v3 Authority Key Identifier: 
                keyid:8C:98:B5:77:72:5B:55:69:B3:C6:AA:8F:1A:6A:B6:79:F1:87:27:FB

            X509v3 Basic Constraints: 
                CA:TRUE
    Signature Algorithm: sha1WithRSAEncryption
         be:2e:59:9f:2b:5a:a2:74:5a:57:ed:ca:68:ca:c7:d1:f5:b3:
         55:2a:f0:f1:d4:16:33:3f:55:2f:24:00:f2:79:ab:2e:5a:f9:
         11:2e:22:59:c5:bb:76:e0:09:28:5b:f7:be:f0:d4:f0:d9:5f:
         42:6a:69:be:00:b7:43:3e:b1:b3:5f:e4:5e:1c:71:5a:22:d6:
         02:c5:4d:b0:8e:11:9f:e2:fc:2d:91:f1:04:27:df:22:db:e5:
         86:e7:f7:22:58:4f:0f:a2:39:62:3d:2b:48:40:9c:b3:32:a2:
         d7:76:61:f2:9c:b7:5e:ae:9b:6c:a1:cc:36:d1:b3:f6:ee:a7:
         97:6e
-----BEGIN CERTIFICATE-----
MIICbDCCAdWgAwIBAgIJALI6Sq/WcqlWMA0GCSqGSIb3DQEBBQUAME8xCzAJBgNV
BAYTAlNFMQ4wDAYDVQQIDAVTa2FuZTEMMAoGA1UECgwDTFRIMRUwEwYDVQQLDAxE
YXRhc2FrZXJoZXQxCzAJBgNVBAMMAkNBMB4XDTE1MDIwMzA5MTQ1OFoXDTE4MDIw
MjA5MTQ1OFowTzELMAkGA1UEBhMCU0UxDjAMBgNVBAgMBVNrYW5lMQwwCgYDVQQK
DANMVEgxFTATBgNVBAsMDERhdGFzYWtlcmhldDELMAkGA1UEAwwCQ0EwgZ8wDQYJ
KoZIhvcNAQEBBQADgY0AMIGJAoGBAN7iGYCo0TwrIqs4SziixG9m1N7DCY2rN9F6
KMVMeselo84yeDayVY2AekOPZRKK6Jti9TvWPJF6q8Wd/8fu00hBga0QZNi8U/iy
z2HvcB+TfJACeRt7iTa9wtGtSQRWbL4mtPH4EqJ0qj/eBwpsSSnupPzlJIIYqBcP
MEGgfujFAgMBAAGjUDBOMB0GA1UdDgQWBBSMmLV3cltVabPGqo8aarZ58Ycn+zAf
BgNVHSMEGDAWgBSMmLV3cltVabPGqo8aarZ58Ycn+zAMBgNVHRMEBTADAQH/MA0G
CSqGSIb3DQEBBQUAA4GBAL4uWZ8rWqJ0WlftymjKx9H1s1Uq8PHUFjM/VS8kAPJ5
qy5a+REuIlnFu3bgCShb977w1PDZX0Jqab4At0M+sbNf5F4ccVoi1gLFTbCOEZ/i
/C2R8QQn3yLb5Ybn9yJYTw+iOWI9K0hAnLMyotd2YfKct16um2yhzDbRs/bup5du
-----END CERTIFICATE-----
